target datalayout = "e-m:e-p270:32:32-p271:32:32-p272:64:64-i64:64-i128:128-f80:128-n8:16:32:64-S128"
target triple = "x86_64-pc-linux-gnu"

; Function Attrs: mustprogress nounwind uwtable
define hidden void @_ZN2cv8ximgproc15EdgeDrawingImpl5AperBEPPdS3_S3_iiii(ptr noundef %0, ptr noundef %1, ptr noundef %2, i32 noundef %3, i32 noundef %4, i32 noundef %5, i32 noundef %6) #8 align 2 {
  %8 = alloca ptr, align 8
  %9 = alloca ptr, align 8
  %10 = alloca ptr, align 8
  %11 = alloca i32, align 4
  %12 = alloca i32, align 4
  %13 = alloca i32, align 4
  %14 = alloca i32, align 4
  %15 = alloca i32, align 4
  %16 = alloca i32, align 4
  %17 = alloca i32, align 4
  store ptr %0, ptr %8, align 8, !tbaa !424
  store ptr %1, ptr %9, align 8, !tbaa !424
  store ptr %2, ptr %10, align 8, !tbaa !424
  store i32 %3, ptr %11, align 4, !tbaa !8
  store i32 %4, ptr %12, align 4, !tbaa !8
  store i32 %5, ptr %13, align 4, !tbaa !8
  store i32 %6, ptr %14, align 4, !tbaa !8
  call void @llvm.lifetime.start.p0(i64 4, ptr %15) #3
  call void @llvm.lifetime.start.p0(i64 4, ptr %16) #3
  call void @llvm.lifetime.start.p0(i64 4, ptr %17) #3
  store i32 1, ptr %15, align 4, !tbaa !8
  br label %18

18:                                               ; preds = %85, %7
  %19 = load i32, ptr %15, align 4, !tbaa !8
  %20 = load i32, ptr %11, align 4, !tbaa !8
  %21 = icmp sle i32 %19, %20
  br i1 %21, label %22, label %88

22:                                               ; preds = %18
  store i32 1, ptr %16, align 4, !tbaa !8
  br label %23

23:                                               ; preds = %81, %22
  %24 = load i32, ptr %16, align 4, !tbaa !8
  %25 = load i32, ptr %14, align 4, !tbaa !8
  %26 = icmp sle i32 %24, %25
  br i1 %26, label %27, label %84

27:                                               ; preds = %23
  %28 = load ptr, ptr %10, align 8, !tbaa !424
  %29 = load i32, ptr %15, align 4, !tbaa !8
  %30 = sext i32 %29 to i64
  %31 = getelementptr inbounds ptr, ptr %28, i64 %30
  %32 = load ptr, ptr %31, align 8, !tbaa !42
  %33 = load i32, ptr %16, align 4, !tbaa !8
  %34 = sext i32 %33 to i64
  %35 = getelementptr inbounds double, ptr %32, i64 %34
  store double 0.000000e+00, ptr %35, align 8, !tbaa !10
  store i32 1, ptr %17, align 4, !tbaa !8
  br label %36

36:                                               ; preds = %77, %27
  %37 = load i32, ptr %17, align 4, !tbaa !8
  %38 = load i32, ptr %12, align 4, !tbaa !8
  %39 = icmp sle i32 %37, %38
  br i1 %39, label %40, label %80

40:                                               ; preds = %36
  %41 = load ptr, ptr %10, align 8, !tbaa !424
  %42 = load i32, ptr %15, align 4, !tbaa !8
  %43 = sext i32 %42 to i64
  %44 = getelementptr inbounds ptr, ptr %41, i64 %43
  %45 = load ptr, ptr %44, align 8, !tbaa !42
  %46 = load i32, ptr %16, align 4, !tbaa !8
  %47 = sext i32 %46 to i64
  %48 = getelementptr inbounds double, ptr %45, i64 %47
  %49 = load double, ptr %48, align 8, !tbaa !10
  %50 = load ptr, ptr %8, align 8, !tbaa !424
  %51 = load i32, ptr %15, align 4, !tbaa !8
  %52 = sext i32 %51 to i64
  %53 = getelementptr inbounds ptr, ptr %50, i64 %52
  %54 = load ptr, ptr %53, align 8, !tbaa !42
  %55 = load i32, ptr %17, align 4, !tbaa !8
  %56 = sext i32 %55 to i64
  %57 = getelementptr inbounds double, ptr %54, i64 %56
  %58 = load double, ptr %57, align 8, !tbaa !10
  %59 = load ptr, ptr %9, align 8, !tbaa !424
  %60 = load i32, ptr %17, align 4, !tbaa !8
  %61 = sext i32 %60 to i64
  %62 = getelementptr inbounds ptr, ptr %59, i64 %61
  %63 = load ptr, ptr %62, align 8, !tbaa !42
  %64 = load i32, ptr %16, align 4, !tbaa !8
  %65 = sext i32 %64 to i64
  %66 = getelementptr inbounds double, ptr %63, i64 %65
  %67 = load double, ptr %66, align 8, !tbaa !10
  %68 = call double @llvm.fmuladd.f64(double %58, double %67, double %49)
  %69 = load ptr, ptr %10, align 8, !tbaa !424
  %70 = load i32, ptr %15, align 4, !tbaa !8
  %71 = sext i32 %70 to i64
  %72 = getelementptr inbounds ptr, ptr %69, i64 %71
  %73 = load ptr, ptr %72, align 8, !tbaa !42
  %74 = load i32, ptr %16, align 4, !tbaa !8
  %75 = sext i32 %74 to i64
  %76 = getelementptr inbounds double, ptr %73, i64 %75
  store double %68, ptr %76, align 8, !tbaa !10
  br label %77

77:                                               ; preds = %40
  %78 = load i32, ptr %17, align 4, !tbaa !8
  %79 = add nsw i32 %78, 1
  store i32 %79, ptr %17, align 4, !tbaa !8
  br label %36, !llvm.loop !592

80:                                               ; preds = %36
  br label %81

81:                                               ; preds = %80
  %82 = load i32, ptr %16, align 4, !tbaa !8
  %83 = add nsw i32 %82, 1
  store i32 %83, ptr %16, align 4, !tbaa !8
  br label %23, !llvm.loop !593

84:                                               ; preds = %23
  br label %85

85:                                               ; preds = %84
  %86 = load i32, ptr %15, align 4, !tbaa !8
  %87 = add nsw i32 %86, 1
  store i32 %87, ptr %15, align 4, !tbaa !8
  br label %18, !llvm.loop !594

88:                                               ; preds = %18
  call void @llvm.lifetime.end.p0(i64 4, ptr %17) #3
  call void @llvm.lifetime.end.p0(i64 4, ptr %16) #3
  call void @llvm.lifetime.end.p0(i64 4, ptr %15) #3
  ret void
}